target datalayout = "e-m:e-p270:32:32-p271:32:32-p272:64:64-i64:64-i128:128-f80:128-n8:16:32:64-S128"
target triple = "x86_64-pc-linux-gnu"

%struct.OSQPSolver = type { ptr, ptr, ptr, ptr }
%struct.OSQPWorkspace_ = type { ptr, ptr, ptr, ptr, ptr, ptr, ptr, ptr, ptr, ptr, ptr, ptr, ptr, ptr, ptr, ptr, ptr, ptr, ptr, ptr, ptr, ptr, ptr, ptr, ptr, ptr, double, double, double, ptr, i64, i64, i64, i64, ptr }
%struct.OSQPData = type { i64, i64, ptr, ptr, ptr, ptr, ptr }
%struct.OSQPSettings = type { i64, i32, i64, i64, i64, i64, i64, i64, double, i64, double, double, i64, i64, double, i32, i64, i64, double, double, i64, double, double, double, double, i64, i64, double, double, i64 }
%struct.OSQPScaling = type { double, ptr, ptr, double, ptr, ptr }
%struct.OSQPInfo = type { [32 x i8], i64, i64, double, double, double, i64, i64, double, double, double, double, double, double }

@__func__.osqp_update_data_vec = private unnamed_addr constant [21 x i8] c"osqp_update_data_vec\00", align 1

; Function Attrs: nounwind uwtable
define i64 @osqp_update_data_vec(ptr noundef %0, ptr noundef %1, ptr noundef %2, ptr noundef %3) #0 {
  %5 = alloca i64, align 8
  %6 = alloca ptr, align 8
  %7 = alloca ptr, align 8
  %8 = alloca ptr, align 8
  %9 = alloca ptr, align 8
  %10 = alloca i64, align 8
  %11 = alloca ptr, align 8
  %12 = alloca ptr, align 8
  %13 = alloca ptr, align 8
  store ptr %0, ptr %6, align 8
  store ptr %1, ptr %7, align 8
  store ptr %2, ptr %8, align 8
  store ptr %3, ptr %9, align 8
  store i64 0, ptr %10, align 8
  %14 = load ptr, ptr %6, align 8
  %15 = icmp ne ptr %14, null
  br i1 %15, label %16, label %21

16:                                               ; preds = %4
  %17 = load ptr, ptr %6, align 8
  %18 = getelementptr inbounds %struct.OSQPSolver, ptr %17, i32 0, i32 3
  %19 = load ptr, ptr %18, align 8
  %20 = icmp ne ptr %19, null
  br i1 %20, label %23, label %21

21:                                               ; preds = %16, %4
  %22 = call i64 @_osqp_error(i32 noundef 6, ptr noundef @__func__.osqp_update_data_vec)
  store i64 %22, ptr %5, align 8
  br label %231

23:                                               ; preds = %16
  %24 = load ptr, ptr %6, align 8
  %25 = getelementptr inbounds %struct.OSQPSolver, ptr %24, i32 0, i32 3
  %26 = load ptr, ptr %25, align 8
  store ptr %26, ptr %13, align 8
  %27 = load ptr, ptr %13, align 8
  %28 = getelementptr inbounds %struct.OSQPWorkspace_, ptr %27, i32 0, i32 31
  %29 = load i64, ptr %28, align 8
  %30 = icmp eq i64 %29, 1
  br i1 %30, label %31, label %38

31:                                               ; preds = %23
  %32 = load ptr, ptr %13, align 8
  %33 = getelementptr inbounds %struct.OSQPWorkspace_, ptr %32, i32 0, i32 31
  store i64 0, ptr %33, align 8
  %34 = load ptr, ptr %6, align 8
  %35 = getelementptr inbounds %struct.OSQPSolver, ptr %34, i32 0, i32 2
  %36 = load ptr, ptr %35, align 8
  %37 = getelementptr inbounds %struct.OSQPInfo, ptr %36, i32 0, i32 11
  store double 0.000000e+00, ptr %37, align 8
  br label %38

38:                                               ; preds = %31, %23
  %39 = load ptr, ptr %13, align 8
  %40 = getelementptr inbounds %struct.OSQPWorkspace_, ptr %39, i32 0, i32 29
  %41 = load ptr, ptr %40, align 8
  call void @osqp_tic(ptr noundef %41)
  %42 = load ptr, ptr %8, align 8
  %43 = icmp ne ptr %42, null
  br i1 %43, label %47, label %44

44:                                               ; preds = %38
  %45 = load ptr, ptr %9, align 8
  %46 = icmp ne ptr %45, null
  br i1 %46, label %47, label %173

47:                                               ; preds = %44, %38
  %48 = load ptr, ptr %13, align 8
  %49 = getelementptr inbounds %struct.OSQPWorkspace_, ptr %48, i32 0, i32 13
  %50 = load ptr, ptr %49, align 8
  store ptr %50, ptr %11, align 8
  %51 = load ptr, ptr %13, align 8
  %52 = getelementptr inbounds %struct.OSQPWorkspace_, ptr %51, i32 0, i32 17
  %53 = load ptr, ptr %52, align 8
  store ptr %53, ptr %12, align 8
  %54 = load ptr, ptr %8, align 8
  %55 = icmp ne ptr %54, null
  br i1 %55, label %56, label %59

56:                                               ; preds = %47
  %57 = load ptr, ptr %11, align 8
  %58 = load ptr, ptr %8, align 8
  call void @OSQPVectorf_from_raw(ptr noundef %57, ptr noundef %58)
  br label %59

59:                                               ; preds = %56, %47
  %60 = load ptr, ptr %9, align 8
  %61 = icmp ne ptr %60, null
  br i1 %61, label %62, label %65

62:                                               ; preds = %59
  %63 = load ptr, ptr %12, align 8
  %64 = load ptr, ptr %9, align 8
  call void @OSQPVectorf_from_raw(ptr noundef %63, ptr noundef %64)
  br label %65

65:                                               ; preds = %62, %59
  %66 = load ptr, ptr %6, align 8
  %67 = getelementptr inbounds %struct.OSQPSolver, ptr %66, i32 0, i32 0
  %68 = load ptr, ptr %67, align 8
  %69 = getelementptr inbounds %struct.OSQPSettings, ptr %68, i32 0, i32 6
  %70 = load i64, ptr %69, align 8
  %71 = icmp ne i64 %70, 0
  br i1 %71, label %72, label %95

72:                                               ; preds = %65
  %73 = load ptr, ptr %8, align 8
  %74 = icmp ne ptr %73, null
  br i1 %74, label %75, label %83

75:                                               ; preds = %72
  %76 = load ptr, ptr %11, align 8
  %77 = load ptr, ptr %11, align 8
  %78 = load ptr, ptr %13, align 8
  %79 = getelementptr inbounds %struct.OSQPWorkspace_, ptr %78, i32 0, i32 25
  %80 = load ptr, ptr %79, align 8
  %81 = getelementptr inbounds %struct.OSQPScaling, ptr %80, i32 0, i32 2
  %82 = load ptr, ptr %81, align 8
  call void @OSQPVectorf_ew_prod(ptr noundef %76, ptr noundef %77, ptr noundef %82)
  br label %83

83:                                               ; preds = %75, %72
  %84 = load ptr, ptr %9, align 8
  %85 = icmp ne ptr %84, null
  br i1 %85, label %86, label %94

86:                                               ; preds = %83
  %87 = load ptr, ptr %12, align 8
  %88 = load ptr, ptr %12, align 8
  %89 = load ptr, ptr %13, align 8
  %90 = getelementptr inbounds %struct.OSQPWorkspace_, ptr %89, i32 0, i32 25
  %91 = load ptr, ptr %90, align 8
  %92 = getelementptr inbounds %struct.OSQPScaling, ptr %91, i32 0, i32 2
  %93 = load ptr, ptr %92, align 8
  call void @OSQPVectorf_ew_prod(ptr noundef %87, ptr noundef %88, ptr noundef %93)
  br label %94

94:                                               ; preds = %86, %83
  br label %95

95:                                               ; preds = %94, %65
  %96 = load ptr, ptr %8, align 8
  %97 = icmp ne ptr %96, null
  br i1 %97, label %98, label %109

98:                                               ; preds = %95
  %99 = load ptr, ptr %9, align 8
  %100 = icmp ne ptr %99, null
  br i1 %100, label %101, label %109

101:                                              ; preds = %98
  %102 = load ptr, ptr %11, align 8
  %103 = load ptr, ptr %12, align 8
  %104 = call i64 @OSQPVectorf_all_leq(ptr noundef %102, ptr noundef %103)
  %105 = icmp ne i64 %104, 0
  %106 = xor i1 %105, true
  %107 = zext i1 %106 to i32
  %108 = sext i32 %107 to i64
  store i64 %108, ptr %10, align 8
  br label %137

109:                                              ; preds = %98, %95
  %110 = load ptr, ptr %8, align 8
  %111 = icmp ne ptr %110, null
  br i1 %111, label %112, label %124

112:                                              ; preds = %109
  %113 = load ptr, ptr %11, align 8
  %114 = load ptr, ptr %13, align 8
  %115 = getelementptr inbounds %struct.OSQPWorkspace_, ptr %114, i32 0, i32 0
  %116 = load ptr, ptr %115, align 8
  %117 = getelementptr inbounds %struct.OSQPData, ptr %116, i32 0, i32 6
  %118 = load ptr, ptr %117, align 8
  %119 = call i64 @OSQPVectorf_all_leq(ptr noundef %113, ptr noundef %118)
  %120 = icmp ne i64 %119, 0
  %121 = xor i1 %120, true
  %122 = zext i1 %121 to i32
  %123 = sext i32 %122 to i64
  store i64 %123, ptr %10, align 8
  br label %136

124:                                              ; preds = %109
  %125 = load ptr, ptr %13, align 8
  %126 = getelementptr inbounds %struct.OSQPWorkspace_, ptr %125, i32 0, i32 0
  %127 = load ptr, ptr %126, align 8
  %128 = getelementptr inbounds %struct.OSQPData, ptr %127, i32 0, i32 5
  %129 = load ptr, ptr %128, align 8
  %130 = load ptr, ptr %12, align 8
  %131 = call i64 @OSQPVectorf_all_leq(ptr noundef %129, ptr noundef %130)
  %132 = icmp ne i64 %131, 0
  %133 = xor i1 %132, true
  %134 = zext i1 %133 to i32
  %135 = sext i32 %134 to i64
  store i64 %135, ptr %10, align 8
  br label %136

136:                                              ; preds = %124, %112
  br label %137

137:                                              ; preds = %136, %101
  %138 = load i64, ptr %10, align 8
  %139 = icmp ne i64 %138, 0
  br i1 %139, label %140, label %142

140:                                              ; preds = %137
  %141 = call i64 @_osqp_error(i32 noundef 1, ptr noundef @__func__.osqp_update_data_vec)
  store i64 %141, ptr %5, align 8
  br label %231

142:                                              ; preds = %137
  %143 = load ptr, ptr %8, align 8
  %144 = icmp ne ptr %143, null
  br i1 %144, label %145, label %152

145:                                              ; preds = %142
  %146 = load ptr, ptr %13, align 8
  %147 = getelementptr inbounds %struct.OSQPWorkspace_, ptr %146, i32 0, i32 13
  %148 = load ptr, ptr %13, align 8
  %149 = getelementptr inbounds %struct.OSQPWorkspace_, ptr %148, i32 0, i32 0
  %150 = load ptr, ptr %149, align 8
  %151 = getelementptr inbounds %struct.OSQPData, ptr %150, i32 0, i32 5
  call void @swap_vectors(ptr noundef %147, ptr noundef %151)
  br label %152

152:                                              ; preds = %145, %142
  %153 = load ptr, ptr %9, align 8
  %154 = icmp ne ptr %153, null
  br i1 %154, label %155, label %162

155:                                              ; preds = %152
  %156 = load ptr, ptr %13, align 8
  %157 = getelementptr inbounds %struct.OSQPWorkspace_, ptr %156, i32 0, i32 17
  %158 = load ptr, ptr %13, align 8
  %159 = getelementptr inbounds %struct.OSQPWorkspace_, ptr %158, i32 0, i32 0
  %160 = load ptr, ptr %159, align 8
  %161 = getelementptr inbounds %struct.OSQPData, ptr %160, i32 0, i32 6
  call void @swap_vectors(ptr noundef %157, ptr noundef %161)
  br label %162

162:                                              ; preds = %155, %152
  %163 = load ptr, ptr %6, align 8
  %164 = getelementptr inbounds %struct.OSQPSolver, ptr %163, i32 0, i32 0
  %165 = load ptr, ptr %164, align 8
  %166 = getelementptr inbounds %struct.OSQPSettings, ptr %165, i32 0, i32 9
  %167 = load i64, ptr %166, align 8
  %168 = icmp ne i64 %167, 0
  br i1 %168, label %169, label %172

169:                                              ; preds = %162
  %170 = load ptr, ptr %6, align 8
  %171 = call i64 @update_rho_vec(ptr noundef %170)
  store i64 %171, ptr %10, align 8
  br label %172

172:                                              ; preds = %169, %162
  br label %173

173:                                              ; preds = %172, %44
  %174 = load ptr, ptr %7, align 8
  %175 = icmp ne ptr %174, null
  br i1 %175, label %176, label %216

176:                                              ; preds = %173
  %177 = load ptr, ptr %13, align 8
  %178 = getelementptr inbounds %struct.OSQPWorkspace_, ptr %177, i32 0, i32 0
  %179 = load ptr, ptr %178, align 8
  %180 = getelementptr inbounds %struct.OSQPData, ptr %179, i32 0, i32 4
  %181 = load ptr, ptr %180, align 8
  %182 = load ptr, ptr %7, align 8
  call void @OSQPVectorf_from_raw(ptr noundef %181, ptr noundef %182)
  %183 = load ptr, ptr %6, align 8
  %184 = getelementptr inbounds %struct.OSQPSolver, ptr %183, i32 0, i32 0
  %185 = load ptr, ptr %184, align 8
  %186 = getelementptr inbounds %struct.OSQPSettings, ptr %185, i32 0, i32 6
  %187 = load i64, ptr %186, align 8
  %188 = icmp ne i64 %187, 0
  br i1 %188, label %189, label %215

189:                                              ; preds = %176
  %190 = load ptr, ptr %13, align 8
  %191 = getelementptr inbounds %struct.OSQPWorkspace_, ptr %190, i32 0, i32 0
  %192 = load ptr, ptr %191, align 8
  %193 = getelementptr inbounds %struct.OSQPData, ptr %192, i32 0, i32 4
  %194 = load ptr, ptr %193, align 8
  %195 = load ptr, ptr %13, align 8
  %196 = getelementptr inbounds %struct.OSQPWorkspace_, ptr %195, i32 0, i32 0
  %197 = load ptr, ptr %196, align 8
  %198 = getelementptr inbounds %struct.OSQPData, ptr %197, i32 0, i32 4
  %199 = load ptr, ptr %198, align 8
  %200 = load ptr, ptr %13, align 8
  %201 = getelementptr inbounds %struct.OSQPWorkspace_, ptr %200, i32 0, i32 25
  %202 = load ptr, ptr %201, align 8
  %203 = getelementptr inbounds %struct.OSQPScaling, ptr %202, i32 0, i32 1
  %204 = load ptr, ptr %203, align 8
  call void @OSQPVectorf_ew_prod(ptr noundef %194, ptr noundef %199, ptr noundef %204)
  %205 = load ptr, ptr %13, align 8
  %206 = getelementptr inbounds %struct.OSQPWorkspace_, ptr %205, i32 0, i32 0
  %207 = load ptr, ptr %206, align 8
  %208 = getelementptr inbounds %struct.OSQPData, ptr %207, i32 0, i32 4
  %209 = load ptr, ptr %208, align 8
  %210 = load ptr, ptr %13, align 8
  %211 = getelementptr inbounds %struct.OSQPWorkspace_, ptr %210, i32 0, i32 25
  %212 = load ptr, ptr %211, align 8
  %213 = getelementptr inbounds %struct.OSQPScaling, ptr %212, i32 0, i32 0
  %214 = load double, ptr %213, align 8
  call void @OSQPVectorf_mult_scalar(ptr noundef %209, double noundef %214)
  br label %215

215:                                              ; preds = %189, %176
  br label %216

216:                                              ; preds = %215, %173
  %217 = load ptr, ptr %6, align 8
  %218 = getelementptr inbounds %struct.OSQPSolver, ptr %217, i32 0, i32 2
  %219 = load ptr, ptr %218, align 8
  call void @reset_info(ptr noundef %219)
  %220 = load ptr, ptr %13, align 8
  %221 = getelementptr inbounds %struct.OSQPWorkspace_, ptr %220, i32 0, i32 29
  %222 = load ptr, ptr %221, align 8
  %223 = call double @osqp_toc(ptr noundef %222)
  %224 = load ptr, ptr %6, align 8
  %225 = getelementptr inbounds %struct.OSQPSolver, ptr %224, i32 0, i32 2
  %226 = load ptr, ptr %225, align 8
  %227 = getelementptr inbounds %struct.OSQPInfo, ptr %226, i32 0, i32 11
  %228 = load double, ptr %227, align 8
  %229 = fadd double %228, %223
  store double %229, ptr %227, align 8
  %230 = load i64, ptr %10, align 8
  store i64 %230, ptr %5, align 8
  br label %231

231:                                              ; preds = %216, %140, %21
  %232 = load i64, ptr %5, align 8
  ret i64 %232
}