; Function Attrs: nounwind uwtable
define i64 @osqp_update_data_vec(ptr noundef %0, ptr noundef %1, ptr noundef %2, ptr noundef %3) local_unnamed_addr #0 {
  %.not = icmp eq ptr %0, null
  br i1 %.not, label %8, label %5

5:                                                ; preds = %4
  %6 = getelementptr inbounds i8, ptr %0, i64 24
  %7 = load ptr, ptr %6, align 8
  %.not66 = icmp eq ptr %7, null
  br i1 %.not66, label %8, label %10

8:                                                ; preds = %5, %4
  %9 = tail call i64 @_osqp_error(i32 noundef 6, ptr noundef nonnull @__func__.osqp_update_data_vec) #15
  br label %100

10:                                               ; preds = %5
  %11 = getelementptr inbounds i8, ptr %7, i64 248
  %12 = load i64, ptr %11, align 8
  %13 = icmp eq i64 %12, 1
  br i1 %13, label %14, label %18

14:                                               ; preds = %10
  store i64 0, ptr %11, align 8
  %15 = getelementptr inbounds i8, ptr %0, i64 16
  %16 = load ptr, ptr %15, align 8
  %17 = getelementptr inbounds i8, ptr %16, i64 112
  store double 0.000000e+00, ptr %17, align 8
  br label %18

18:                                               ; preds = %14, %10
  %19 = getelementptr inbounds i8, ptr %7, i64 232
  %20 = load ptr, ptr %19, align 8
  tail call void @osqp_tic(ptr noundef %20) #15
  %21 = icmp ne ptr %2, null
  %22 = icmp ne ptr %3, null
  %or.cond = or i1 %21, %22
  br i1 %or.cond, label %23, label %70

23:                                               ; preds = %18
  %24 = getelementptr inbounds i8, ptr %7, i64 104
  %25 = load ptr, ptr %24, align 8
  %26 = getelementptr inbounds i8, ptr %7, i64 136
  %27 = load ptr, ptr %26, align 8
  br i1 %21, label %28, label %29

28:                                               ; preds = %23
  tail call void @OSQPVectorf_from_raw(ptr noundef %25, ptr noundef nonnull %2) #15
  br label %29

29:                                               ; preds = %28, %23
  br i1 %22, label %30, label %31

30:                                               ; preds = %29
  tail call void @OSQPVectorf_from_raw(ptr noundef %27, ptr noundef nonnull %3) #15
  br label %31

31:                                               ; preds = %30, %29
  %32 = load ptr, ptr %0, align 8
  %33 = getelementptr inbounds i8, ptr %32, i64 48
  %34 = load i64, ptr %33, align 8
  %.not67 = icmp eq i64 %34, 0
  br i1 %.not67, label %47, label %35

35:                                               ; preds = %31
  br i1 %21, label %36, label %41

36:                                               ; preds = %35
  %37 = getelementptr inbounds i8, ptr %7, i64 200
  %38 = load ptr, ptr %37, align 8
  %39 = getelementptr inbounds i8, ptr %38, i64 16
  %40 = load ptr, ptr %39, align 8
  tail call void @OSQPVectorf_ew_prod(ptr noundef %25, ptr noundef %25, ptr noundef %40) #15
  br label %41

41:                                               ; preds = %36, %35
  br i1 %22, label %42, label %.thread

42:                                               ; preds = %41
  %43 = getelementptr inbounds i8, ptr %7, i64 200
  %44 = load ptr, ptr %43, align 8
  %45 = getelementptr inbounds i8, ptr %44, i64 16
  %46 = load ptr, ptr %45, align 8
  tail call void @OSQPVectorf_ew_prod(ptr noundef %27, ptr noundef %27, ptr noundef %46) #15
  br label %47

47:                                               ; preds = %42, %31
  %or.cond3 = and i1 %21, %22
  br i1 %or.cond3, label %49, label %.thread

.thread:                                          ; preds = %41, %47
  %48 = load ptr, ptr %7, align 8
  br i1 %21, label %.thread79, label %.thread75

49:                                               ; preds = %47
  %50 = tail call i64 @OSQPVectorf_all_leq(ptr noundef %25, ptr noundef %27) #15
  %.060.in = icmp eq i64 %50, 0
  br i1 %.060.in, label %57, label %.thread82

.thread79:                                        ; preds = %.thread
  %51 = getelementptr inbounds i8, ptr %48, i64 48
  %52 = load ptr, ptr %51, align 8
  %53 = tail call i64 @OSQPVectorf_all_leq(ptr noundef %25, ptr noundef %52) #15
  %.060.in81 = icmp eq i64 %53, 0
  br i1 %.060.in81, label %57, label %.thread82

.thread75:                                        ; preds = %.thread
  %54 = getelementptr inbounds i8, ptr %48, i64 40
  %55 = load ptr, ptr %54, align 8
  %56 = tail call i64 @OSQPVectorf_all_leq(ptr noundef %55, ptr noundef %27) #15
  %.060.in77 = icmp eq i64 %56, 0
  br i1 %.060.in77, label %57, label %.thread78

57:                                               ; preds = %.thread79, %.thread75, %49
  %58 = tail call i64 @_osqp_error(i32 noundef 1, ptr noundef nonnull @__func__.osqp_update_data_vec) #15
  br label %100

.thread82:                                        ; preds = %49, %.thread79
  %59 = load ptr, ptr %7, align 8
  %60 = getelementptr inbounds i8, ptr %59, i64 40
  tail call void @swap_vectors(ptr noundef nonnull %24, ptr noundef nonnull %60) #15
  br label %.thread78

.thread78:                                        ; preds = %.thread75, %.thread82
  br i1 %22, label %61, label %64

61:                                               ; preds = %.thread78
  %62 = load ptr, ptr %7, align 8
  %63 = getelementptr inbounds i8, ptr %62, i64 48
  tail call void @swap_vectors(ptr noundef nonnull %26, ptr noundef nonnull %63) #15
  br label %64

64:                                               ; preds = %61, %.thread78
  %65 = load ptr, ptr %0, align 8
  %66 = getelementptr inbounds i8, ptr %65, i64 72
  %67 = load i64, ptr %66, align 8
  %.not71 = icmp eq i64 %67, 0
  br i1 %.not71, label %70, label %68

68:                                               ; preds = %64
  %69 = tail call i64 @update_rho_vec(ptr noundef nonnull %0) #15
  br label %70

70:                                               ; preds = %64, %68, %18
  %.1 = phi i64 [ %69, %68 ], [ 0, %64 ], [ 0, %18 ]
  %.not72 = icmp eq ptr %1, null
  br i1 %.not72, label %91, label %71

71:                                               ; preds = %70
  %72 = load ptr, ptr %7, align 8
  %73 = getelementptr inbounds i8, ptr %72, i64 32
  %74 = load ptr, ptr %73, align 8
  tail call void @OSQPVectorf_from_raw(ptr noundef %74, ptr noundef nonnull %1) #15
  %75 = load ptr, ptr %0, align 8
  %76 = getelementptr inbounds i8, ptr %75, i64 48
  %77 = load i64, ptr %76, align 8
  %.not73 = icmp eq i64 %77, 0
  br i1 %.not73, label %91, label %78

78:                                               ; preds = %71
  %79 = load ptr, ptr %7, align 8
  %80 = getelementptr inbounds i8, ptr %79, i64 32
  %81 = load ptr, ptr %80, align 8
  %82 = getelementptr inbounds i8, ptr %7, i64 200
  %83 = load ptr, ptr %82, align 8
  %84 = getelementptr inbounds i8, ptr %83, i64 8
  %85 = load ptr, ptr %84, align 8
  tail call void @OSQPVectorf_ew_prod(ptr noundef %81, ptr noundef %81, ptr noundef %85) #15
  %86 = load ptr, ptr %7, align 8
  %87 = getelementptr inbounds i8, ptr %86, i64 32
  %88 = load ptr, ptr %87, align 8
  %89 = load ptr, ptr %82, align 8
  %90 = load double, ptr %89, align 8
  tail call void @OSQPVectorf_mult_scalar(ptr noundef %88, double noundef %90) #15
  br label %91

91:                                               ; preds = %71, %78, %70
  %92 = getelementptr inbounds i8, ptr %0, i64 16
  %93 = load ptr, ptr %92, align 8
  tail call void @reset_info(ptr noundef %93) #15
  %94 = load ptr, ptr %19, align 8
  %95 = tail call double @osqp_toc(ptr noundef %94) #15
  %96 = load ptr, ptr %92, align 8
  %97 = getelementptr inbounds i8, ptr %96, i64 112
  %98 = load double, ptr %97, align 8
  %99 = fadd double %95, %98
  store double %99, ptr %97, align 8
  br label %100

100:                                              ; preds = %91, %57, %8
  %.0 = phi i64 [ %58, %57 ], [ %.1, %91 ], [ %9, %8 ]
  ret i64 %.0
}